target datalayout = "e-m:e-p270:32:32-p271:32:32-p272:64:64-i64:64-i128:128-f80:128-n8:16:32:64-S128"
target triple = "x86_64-unknown-linux-gnu"

%"class.icu_75::UTF16CollationIterator" = type { %"class.icu_75::CollationIterator.base", ptr, ptr, ptr }
%"class.icu_75::CollationIterator.base" = type <{ %"class.icu_75::UObject", ptr, ptr, %"class.icu_75::CollationIterator::CEBuffer", i32, [4 x i8], ptr, i32, i8 }>
%"class.icu_75::UObject" = type { ptr }
%"class.icu_75::CollationIterator::CEBuffer" = type { i32, %"class.icu_75::MaybeStackArray.0" }
%"class.icu_75::MaybeStackArray.0" = type { ptr, i32, i8, [40 x i64] }
%"class.icu_75::CollationIterator" = type <{ %"class.icu_75::UObject", ptr, ptr, %"class.icu_75::CollationIterator::CEBuffer", i32, [4 x i8], ptr, i32, i8, [3 x i8] }>
%struct.UTrie2 = type { ptr, ptr, ptr, i32, i32, i16, i16, i32, i32, i32, i32, ptr, i32, i8, i8, i16, ptr }
%"class.icu_75::FCDUTF16CollationIterator" = type <{ %"class.icu_75::UTF16CollationIterator", ptr, ptr, ptr, ptr, ptr, %"class.icu_75::UnicodeString", i8, [7 x i8] }>
%"class.icu_75::UnicodeString" = type { %"class.icu_75::Replaceable", %"union.icu_75::UnicodeString::StackBufferOrFields" }
%"class.icu_75::Replaceable" = type { %"class.icu_75::UObject" }
%"union.icu_75::UnicodeString::StackBufferOrFields" = type { %struct.anon.1, [32 x i8] }
%struct.anon.1 = type { i16, i32, i32, ptr }

@_ZN6icu_7512CollationFCD9tcccIndexE = external constant [2048 x i8], align 16
@_ZN6icu_7512CollationFCD8tcccBitsE = external constant [0 x i32], align 4
@_ZN6icu_7512CollationFCD9lcccIndexE = external constant [2048 x i8], align 16
@_ZN6icu_7512CollationFCD8lcccBitsE = external constant [0 x i32], align 4

; Function Attrs: mustprogress nounwind uwtable
define void @_ZN6icu_7525FCDUTF16CollationIterator15switchToForwardEv(ptr noundef nonnull align 8 dereferenceable(521) %this) #0 align 2 {
entry:
  %this.addr = alloca ptr, align 8
  store ptr %this, ptr %this.addr, align 8
  %this1 = load ptr, ptr %this.addr, align 8
  %checkDir = getelementptr inbounds %"class.icu_75::FCDUTF16CollationIterator", ptr %this1, i32 0, i32 7
  %0 = load i8, ptr %checkDir, align 8
  %conv = sext i8 %0 to i32
  %cmp = icmp slt i32 %conv, 0
  br i1 %cmp, label %if.then, label %if.else7

if.then:                                          ; preds = %entry
  %pos = getelementptr inbounds %"class.icu_75::UTF16CollationIterator", ptr %this1, i32 0, i32 2
  %1 = load ptr, ptr %pos, align 8
  %segmentStart = getelementptr inbounds %"class.icu_75::FCDUTF16CollationIterator", ptr %this1, i32 0, i32 2
  store ptr %1, ptr %segmentStart, align 8
  %start = getelementptr inbounds %"class.icu_75::UTF16CollationIterator", ptr %this1, i32 0, i32 1
  store ptr %1, ptr %start, align 8
  %pos2 = getelementptr inbounds %"class.icu_75::UTF16CollationIterator", ptr %this1, i32 0, i32 2
  %2 = load ptr, ptr %pos2, align 8
  %segmentLimit = getelementptr inbounds %"class.icu_75::FCDUTF16CollationIterator", ptr %this1, i32 0, i32 3
  %3 = load ptr, ptr %segmentLimit, align 8
  %cmp3 = icmp eq ptr %2, %3
  br i1 %cmp3, label %if.then4, label %if.else

if.then4:                                         ; preds = %if.then
  %rawLimit = getelementptr inbounds %"class.icu_75::FCDUTF16CollationIterator", ptr %this1, i32 0, i32 4
  %4 = load ptr, ptr %rawLimit, align 8
  %limit = getelementptr inbounds %"class.icu_75::UTF16CollationIterator", ptr %this1, i32 0, i32 3
  store ptr %4, ptr %limit, align 8
  %checkDir5 = getelementptr inbounds %"class.icu_75::FCDUTF16CollationIterator", ptr %this1, i32 0, i32 7
  store i8 1, ptr %checkDir5, align 8
  br label %if.end

if.else:                                          ; preds = %if.then
  %checkDir6 = getelementptr inbounds %"class.icu_75::FCDUTF16CollationIterator", ptr %this1, i32 0, i32 7
  store i8 0, ptr %checkDir6, align 8
  br label %if.end

if.end:                                           ; preds = %if.else, %if.then4
  br label %if.end21

if.else7:                                         ; preds = %entry
  %start8 = getelementptr inbounds %"class.icu_75::UTF16CollationIterator", ptr %this1, i32 0, i32 1
  %5 = load ptr, ptr %start8, align 8
  %segmentStart9 = getelementptr inbounds %"class.icu_75::FCDUTF16CollationIterator", ptr %this1, i32 0, i32 2
  %6 = load ptr, ptr %segmentStart9, align 8
  %cmp10 = icmp eq ptr %5, %6
  br i1 %cmp10, label %if.then11, label %if.else12

if.then11:                                        ; preds = %if.else7
  br label %if.end17

if.else12:                                        ; preds = %if.else7
  %segmentLimit13 = getelementptr inbounds %"class.icu_75::FCDUTF16CollationIterator", ptr %this1, i32 0, i32 3
  %7 = load ptr, ptr %segmentLimit13, align 8
  %segmentStart14 = getelementptr inbounds %"class.icu_75::FCDUTF16CollationIterator", ptr %this1, i32 0, i32 2
  store ptr %7, ptr %segmentStart14, align 8
  %start15 = getelementptr inbounds %"class.icu_75::UTF16CollationIterator", ptr %this1, i32 0, i32 1
  store ptr %7, ptr %start15, align 8
  %pos16 = getelementptr inbounds %"class.icu_75::UTF16CollationIterator", ptr %this1, i32 0, i32 2
  store ptr %7, ptr %pos16, align 8
  br label %if.end17

if.end17:                                         ; preds = %if.else12, %if.then11
  %rawLimit18 = getelementptr inbounds %"class.icu_75::FCDUTF16CollationIterator", ptr %this1, i32 0, i32 4
  %8 = load ptr, ptr %rawLimit18, align 8
  %limit19 = getelementptr inbounds %"class.icu_75::UTF16CollationIterator", ptr %this1, i32 0, i32 3
  store ptr %8, ptr %limit19, align 8
  %checkDir20 = getelementptr inbounds %"class.icu_75::FCDUTF16CollationIterator", ptr %this1, i32 0, i32 7
  store i8 1, ptr %checkDir20, align 8
  br label %if.end21

if.end21:                                         ; preds = %if.end17, %if.end
  ret void
}

; Function Attrs: mustprogress nounwind uwtable
define linkonce_odr noundef signext i8 @_ZN6icu_7512CollationFCD7hasLcccEi(i32 noundef %c) #0 comdat align 2 {
entry:
  %c.addr = alloca i32, align 4
  %i = alloca i32, align 4
  store i32 %c, ptr %c.addr, align 4
  %0 = load i32, ptr %c.addr, align 4
  %cmp = icmp sge i32 %0, 768
  br i1 %cmp, label %land.lhs.true, label %land.end

land.lhs.true:                                    ; preds = %entry
  %1 = load i32, ptr %c.addr, align 4
  %shr = ashr i32 %1, 5
  %idxprom = sext i32 %shr to i64
  %arrayidx = getelementptr inbounds [2048 x i8], ptr @_ZN6icu_7512CollationFCD9lcccIndexE, i64 0, i64 %idxprom
  %2 = load i8, ptr %arrayidx, align 1
  %conv = zext i8 %2 to i32
  store i32 %conv, ptr %i, align 4
  %cmp1 = icmp ne i32 %conv, 0
  br i1 %cmp1, label %land.rhs, label %land.end

land.rhs:                                         ; preds = %land.lhs.true
  %3 = load i32, ptr %i, align 4
  %idxprom2 = sext i32 %3 to i64
  %arrayidx3 = getelementptr inbounds [0 x i32], ptr @_ZN6icu_7512CollationFCD8lcccBitsE, i64 0, i64 %idxprom2
  %4 = load i32, ptr %arrayidx3, align 4
  %5 = load i32, ptr %c.addr, align 4
  %and = and i32 %5, 31
  %shl = shl i32 1, %and
  %and4 = and i32 %4, %shl
  %cmp5 = icmp ne i32 %and4, 0
  br label %land.end

land.end:                                         ; preds = %land.rhs, %land.lhs.true, %entry
  %6 = phi i1 [ false, %land.lhs.true ], [ false, %entry ], [ %cmp5, %land.rhs ]
  %conv6 = zext i1 %6 to i8
  ret i8 %conv6
}

; Function Attrs: mustprogress nounwind uwtable
define linkonce_odr noundef signext i8 @_ZN6icu_7512CollationFCD26maybeTibetanCompositeVowelEi(i32 noundef %c) #0 comdat align 2 {
entry:
  %c.addr = alloca i32, align 4
  store i32 %c, ptr %c.addr, align 4
  %0 = load i32, ptr %c.addr, align 4
  %and = and i32 %0, 2096897
  %cmp = icmp eq i32 %and, 3841
  %conv = zext i1 %cmp to i8
  ret i8 %conv
}

; Function Attrs: mustprogress nounwind uwtable
define linkonce_odr noundef signext i8 @_ZN6icu_7512CollationFCD7hasTcccEi(i32 noundef %c) #0 comdat align 2 {
entry:
  %c.addr = alloca i32, align 4
  %i = alloca i32, align 4
  store i32 %c, ptr %c.addr, align 4
  %0 = load i32, ptr %c.addr, align 4
  %cmp = icmp sge i32 %0, 192
  br i1 %cmp, label %land.lhs.true, label %land.end

land.lhs.true:                                    ; preds = %entry
  %1 = load i32, ptr %c.addr, align 4
  %shr = ashr i32 %1, 5
  %idxprom = sext i32 %shr to i64
  %arrayidx = getelementptr inbounds [2048 x i8], ptr @_ZN6icu_7512CollationFCD9tcccIndexE, i64 0, i64 %idxprom
  %2 = load i8, ptr %arrayidx, align 1
  %conv = zext i8 %2 to i32
  store i32 %conv, ptr %i, align 4
  %cmp1 = icmp ne i32 %conv, 0
  br i1 %cmp1, label %land.rhs, label %land.end

land.rhs:                                         ; preds = %land.lhs.true
  %3 = load i32, ptr %i, align 4
  %idxprom2 = sext i32 %3 to i64
  %arrayidx3 = getelementptr inbounds [0 x i32], ptr @_ZN6icu_7512CollationFCD8tcccBitsE, i64 0, i64 %idxprom2
  %4 = load i32, ptr %arrayidx3, align 4
  %5 = load i32, ptr %c.addr, align 4
  %and = and i32 %5, 31
  %shl = shl i32 1, %and
  %and4 = and i32 %4, %shl
  %cmp5 = icmp ne i32 %and4, 0
  br label %land.end

land.end:                                         ; preds = %land.rhs, %land.lhs.true, %entry
  %6 = phi i1 [ false, %land.lhs.true ], [ false, %entry ], [ %cmp5, %land.rhs ]
  %conv6 = zext i1 %6 to i8
  ret i8 %conv6
}

; Function Attrs: mustprogress uwtable
define noundef i32 @_ZN6icu_7525FCDUTF16CollationIterator14handleNextCE32ERiR10UErrorCode(ptr noundef nonnull align 8 dereferenceable(521) %this, ptr noundef nonnull align 4 dereferenceable(4) %c, ptr noundef nonnull align 4 dereferenceable(4) %errorCode) unnamed_addr #1 align 2 {
entry:
  %retval = alloca i32, align 4
  %this.addr = alloca ptr, align 8
  %c.addr = alloca ptr, align 8
  %errorCode.addr = alloca ptr, align 8
  store ptr %this, ptr %this.addr, align 8
  store ptr %c, ptr %c.addr, align 8
  store ptr %errorCode, ptr %errorCode.addr, align 8
  %this1 = load ptr, ptr %this.addr, align 8
  br label %for.cond

for.cond:                                         ; preds = %if.end41, %entry
  %checkDir = getelementptr inbounds %"class.icu_75::FCDUTF16CollationIterator", ptr %this1, i32 0, i32 7
  %0 = load i8, ptr %checkDir, align 8
  %conv = sext i8 %0 to i32
  %cmp = icmp sgt i32 %conv, 0
  br i1 %cmp, label %if.then, label %if.else

if.then:                                          ; preds = %for.cond
  %pos = getelementptr inbounds %"class.icu_75::UTF16CollationIterator", ptr %this1, i32 0, i32 2
  %1 = load ptr, ptr %pos, align 8
  %limit = getelementptr inbounds %"class.icu_75::UTF16CollationIterator", ptr %this1, i32 0, i32 3
  %2 = load ptr, ptr %limit, align 8
  %cmp2 = icmp eq ptr %1, %2
  br i1 %cmp2, label %if.then3, label %if.end

if.then3:                                         ; preds = %if.then
  %3 = load ptr, ptr %c.addr, align 8
  store i32 -1, ptr %3, align 4
  store i32 192, ptr %retval, align 4
  br label %return

if.end:                                           ; preds = %if.then
  %pos4 = getelementptr inbounds %"class.icu_75::UTF16CollationIterator", ptr %this1, i32 0, i32 2
  %4 = load ptr, ptr %pos4, align 8
  %incdec.ptr = getelementptr inbounds i16, ptr %4, i32 1
  store ptr %incdec.ptr, ptr %pos4, align 8
  %5 = load i16, ptr %4, align 2
  %conv5 = zext i16 %5 to i32
  %6 = load ptr, ptr %c.addr, align 8
  store i32 %conv5, ptr %6, align 4
  %7 = load ptr, ptr %c.addr, align 8
  %8 = load i32, ptr %7, align 4
  %call = call noundef signext i8 @_ZN6icu_7512CollationFCD7hasTcccEi(i32 noundef %8)
  %tobool = icmp ne i8 %call, 0
  br i1 %tobool, label %if.then6, label %if.end27

if.then6:                                         ; preds = %if.end
  %9 = load ptr, ptr %c.addr, align 8
  %10 = load i32, ptr %9, align 4
  %call7 = call noundef signext i8 @_ZN6icu_7512CollationFCD26maybeTibetanCompositeVowelEi(i32 noundef %10)
  %tobool8 = icmp ne i8 %call7, 0
  br i1 %tobool8, label %if.then16, label %lor.lhs.false

lor.lhs.false:                                    ; preds = %if.then6
  %pos9 = getelementptr inbounds %"class.icu_75::UTF16CollationIterator", ptr %this1, i32 0, i32 2
  %11 = load ptr, ptr %pos9, align 8
  %limit10 = getelementptr inbounds %"class.icu_75::UTF16CollationIterator", ptr %this1, i32 0, i32 3
  %12 = load ptr, ptr %limit10, align 8
  %cmp11 = icmp ne ptr %11, %12
  br i1 %cmp11, label %land.lhs.true, label %if.end26

land.lhs.true:                                    ; preds = %lor.lhs.false
  %pos12 = getelementptr inbounds %"class.icu_75::UTF16CollationIterator", ptr %this1, i32 0, i32 2
  %13 = load ptr, ptr %pos12, align 8
  %14 = load i16, ptr %13, align 2
  %conv13 = zext i16 %14 to i32
  %call14 = call noundef signext i8 @_ZN6icu_7512CollationFCD7hasLcccEi(i32 noundef %conv13)
  %tobool15 = icmp ne i8 %call14, 0
  br i1 %tobool15, label %if.then16, label %if.end26

if.then16:                                        ; preds = %land.lhs.true, %if.then6
  %pos17 = getelementptr inbounds %"class.icu_75::UTF16CollationIterator", ptr %this1, i32 0, i32 2
  %15 = load ptr, ptr %pos17, align 8
  %incdec.ptr18 = getelementptr inbounds i16, ptr %15, i32 -1
  store ptr %incdec.ptr18, ptr %pos17, align 8
  %16 = load ptr, ptr %errorCode.addr, align 8
  %call19 = call noundef signext i8 @_ZN6icu_7525FCDUTF16CollationIterator11nextSegmentER10UErrorCode(ptr noundef nonnull align 8 dereferenceable(521) %this1, ptr noundef nonnull align 4 dereferenceable(4) %16)
  %tobool20 = icmp ne i8 %call19, 0
  br i1 %tobool20, label %if.end22, label %if.then21

if.then21:                                        ; preds = %if.then16
  %17 = load ptr, ptr %c.addr, align 8
  store i32 -1, ptr %17, align 4
  store i32 192, ptr %retval, align 4
  br label %return

if.end22:                                         ; preds = %if.then16
  %pos23 = getelementptr inbounds %"class.icu_75::UTF16CollationIterator", ptr %this1, i32 0, i32 2
  %18 = load ptr, ptr %pos23, align 8
  %incdec.ptr24 = getelementptr inbounds i16, ptr %18, i32 1
  store ptr %incdec.ptr24, ptr %pos23, align 8
  %19 = load i16, ptr %18, align 2
  %conv25 = zext i16 %19 to i32
  %20 = load ptr, ptr %c.addr, align 8
  store i32 %conv25, ptr %20, align 4
  br label %if.end26

if.end26:                                         ; preds = %if.end22, %land.lhs.true, %lor.lhs.false
  br label %if.end27

if.end27:                                         ; preds = %if.end26, %if.end
  br label %for.end

if.else:                                          ; preds = %for.cond
  %checkDir28 = getelementptr inbounds %"class.icu_75::FCDUTF16CollationIterator", ptr %this1, i32 0, i32 7
  %21 = load i8, ptr %checkDir28, align 8
  %conv29 = sext i8 %21 to i32
  %cmp30 = icmp eq i32 %conv29, 0
  br i1 %cmp30, label %land.lhs.true31, label %if.else39

land.lhs.true31:                                  ; preds = %if.else
  %pos32 = getelementptr inbounds %"class.icu_75::UTF16CollationIterator", ptr %this1, i32 0, i32 2
  %22 = load ptr, ptr %pos32, align 8
  %limit33 = getelementptr inbounds %"class.icu_75::UTF16CollationIterator", ptr %this1, i32 0, i32 3
  %23 = load ptr, ptr %limit33, align 8
  %cmp34 = icmp ne ptr %22, %23
  br i1 %cmp34, label %if.then35, label %if.else39

if.then35:                                        ; preds = %land.lhs.true31
  %pos36 = getelementptr inbounds %"class.icu_75::UTF16CollationIterator", ptr %this1, i32 0, i32 2
  %24 = load ptr, ptr %pos36, align 8
  %incdec.ptr37 = getelementptr inbounds i16, ptr %24, i32 1
  store ptr %incdec.ptr37, ptr %pos36, align 8
  %25 = load i16, ptr %24, align 2
  %conv38 = zext i16 %25 to i32
  %26 = load ptr, ptr %c.addr, align 8
  store i32 %conv38, ptr %26, align 4
  br label %for.end

if.else39:                                        ; preds = %land.lhs.true31, %if.else
  call void @_ZN6icu_7525FCDUTF16CollationIterator15switchToForwardEv(ptr noundef nonnull align 8 dereferenceable(521) %this1)
  br label %if.end40

if.end40:                                         ; preds = %if.else39
  br label %if.end41

if.end41:                                         ; preds = %if.end40
  br label %for.cond, !llvm.loop !7

for.end:                                          ; preds = %if.then35, %if.end27
  %trie = getelementptr inbounds %"class.icu_75::CollationIterator", ptr %this1, i32 0, i32 1
  %27 = load ptr, ptr %trie, align 8
  %data32 = getelementptr inbounds %struct.UTrie2, ptr %27, i32 0, i32 2
  %28 = load ptr, ptr %data32, align 8
  %trie42 = getelementptr inbounds %"class.icu_75::CollationIterator", ptr %this1, i32 0, i32 1
  %29 = load ptr, ptr %trie42, align 8
  %index = getelementptr inbounds %struct.UTrie2, ptr %29, i32 0, i32 0
  %30 = load ptr, ptr %index, align 8
  %31 = load ptr, ptr %c.addr, align 8
  %32 = load i32, ptr %31, align 4
  %shr = ashr i32 %32, 5
  %add = add nsw i32 0, %shr
  %idxprom = sext i32 %add to i64
  %arrayidx = getelementptr inbounds i16, ptr %30, i64 %idxprom
  %33 = load i16, ptr %arrayidx, align 2
  %conv43 = zext i16 %33 to i32
  %shl = shl i32 %conv43, 2
  %34 = load ptr, ptr %c.addr, align 8
  %35 = load i32, ptr %34, align 4
  %and = and i32 %35, 31
  %add44 = add nsw i32 %shl, %and
  %idxprom45 = sext i32 %add44 to i64
  %arrayidx46 = getelementptr inbounds i32, ptr %28, i64 %idxprom45
  %36 = load i32, ptr %arrayidx46, align 4
  store i32 %36, ptr %retval, align 4
  br label %return

return:                                           ; preds = %for.end, %if.then21, %if.then3
  %37 = load i32, ptr %retval, align 4
  ret i32 %37
}