; Function Attrs: mustprogress uwtable
define noundef i32 @_ZN6icu_7525FCDUTF16CollationIterator14handleNextCE32ERiR10UErrorCode(ptr noundef nonnull align 8 dereferenceable(521) %this, ptr nocapture noundef nonnull writeonly align 4 dereferenceable(4) %c, ptr noundef nonnull align 4 dereferenceable(4) %errorCode) unnamed_addr #1 align 2 {
entry:
  %checkDir = getelementptr inbounds i8, ptr %this, i64 520
  %checkDir.promoted = load i8, ptr %checkDir, align 8
  %cmp36 = icmp sgt i8 %checkDir.promoted, 0
  br i1 %cmp36, label %entry.if.then_crit_edge, label %if.else.lr.ph

entry.if.then_crit_edge:                          ; preds = %entry
  %pos.phi.trans.insert = getelementptr inbounds i8, ptr %this, i64 400
  %.pre = load ptr, ptr %pos.phi.trans.insert, align 8
  %limit.phi.trans.insert = getelementptr inbounds i8, ptr %this, i64 408
  %.pre39 = load ptr, ptr %limit.phi.trans.insert, align 8
  br label %if.then

if.else.lr.ph:                                    ; preds = %entry
  %segmentStart.i33 = getelementptr inbounds i8, ptr %this, i64 424
  %pos.i = getelementptr inbounds i8, ptr %this, i64 400
  %start.i = getelementptr inbounds i8, ptr %this, i64 392
  %segmentLimit.i = getelementptr inbounds i8, ptr %this, i64 432
  %0 = load ptr, ptr %segmentLimit.i, align 8
  %limit33 = getelementptr inbounds i8, ptr %this, i64 408
  %rawLimit.i = getelementptr inbounds i8, ptr %this, i64 440
  %1 = load ptr, ptr %rawLimit.i, align 8
  %pos.i.promoted = load ptr, ptr %pos.i, align 8
  %segmentStart.i33.promoted = load ptr, ptr %segmentStart.i33, align 8
  %start.i.promoted = load ptr, ptr %start.i, align 8
  %limit33.promoted = load ptr, ptr %limit33, align 8
  %2 = icmp eq i8 %checkDir.promoted, 0
  br i1 %2, label %land.lhs.true31, label %if.then.i

if.then:                                          ; preds = %_ZN6icu_7525FCDUTF16CollationIterator15switchToForwardEv.exit.thread, %entry.if.then_crit_edge
  %3 = phi ptr [ %.pre39, %entry.if.then_crit_edge ], [ %1, %_ZN6icu_7525FCDUTF16CollationIterator15switchToForwardEv.exit.thread ]
  %4 = phi ptr [ %.pre, %entry.if.then_crit_edge ], [ %13, %_ZN6icu_7525FCDUTF16CollationIterator15switchToForwardEv.exit.thread ]
  %pos = getelementptr inbounds i8, ptr %this, i64 400
  %limit = getelementptr inbounds i8, ptr %this, i64 408
  %cmp2 = icmp eq ptr %4, %3
  br i1 %cmp2, label %if.then3, label %if.end

if.then3:                                         ; preds = %if.then
  store i32 -1, ptr %c, align 4
  br label %return

if.end:                                           ; preds = %if.then
  %incdec.ptr = getelementptr inbounds i8, ptr %4, i64 2
  store ptr %incdec.ptr, ptr %pos, align 8
  %5 = load i16, ptr %4, align 2
  %conv5 = zext i16 %5 to i32
  store i32 %conv5, ptr %c, align 4
  %cmp.i = icmp ugt i16 %5, 191
  br i1 %cmp.i, label %land.lhs.true.i, label %for.end

land.lhs.true.i:                                  ; preds = %if.end
  %shr.i = lshr i32 %conv5, 5
  %idxprom.i = zext nneg i32 %shr.i to i64
  %arrayidx.i = getelementptr inbounds [2048 x i8], ptr @_ZN6icu_7512CollationFCD9tcccIndexE, i64 0, i64 %idxprom.i
  %6 = load i8, ptr %arrayidx.i, align 1
  %cmp1.not.i = icmp eq i8 %6, 0
  br i1 %cmp1.not.i, label %for.end, label %_ZN6icu_7512CollationFCD7hasTcccEi.exit

_ZN6icu_7512CollationFCD7hasTcccEi.exit:          ; preds = %land.lhs.true.i
  %idxprom2.i = zext i8 %6 to i64
  %arrayidx3.i = getelementptr inbounds [0 x i32], ptr @_ZN6icu_7512CollationFCD8tcccBitsE, i64 0, i64 %idxprom2.i
  %7 = load i32, ptr %arrayidx3.i, align 4
  %and.i = and i32 %conv5, 31
  %shl.i = shl nuw i32 1, %and.i
  %and4.i = and i32 %7, %shl.i
  %cmp5.i.not = icmp eq i32 %and4.i, 0
  br i1 %cmp5.i.not, label %for.end, label %if.then6

if.then6:                                         ; preds = %_ZN6icu_7512CollationFCD7hasTcccEi.exit
  %and.i11 = and i32 %conv5, 65281
  %cmp.i12.not = icmp eq i32 %and.i11, 3841
  %.pre40 = load ptr, ptr %pos, align 8
  br i1 %cmp.i12.not, label %if.then16, label %lor.lhs.false

lor.lhs.false:                                    ; preds = %if.then6
  %8 = load ptr, ptr %limit, align 8
  %cmp11.not = icmp eq ptr %.pre40, %8
  br i1 %cmp11.not, label %for.end, label %land.lhs.true

land.lhs.true:                                    ; preds = %lor.lhs.false
  %9 = load i16, ptr %.pre40, align 2
  %conv13 = zext i16 %9 to i32
  %cmp.i13 = icmp ugt i16 %9, 767
  br i1 %cmp.i13, label %land.lhs.true.i15, label %for.end

land.lhs.true.i15:                                ; preds = %land.lhs.true
  %shr.i16 = lshr i32 %conv13, 5
  %idxprom.i17 = zext nneg i32 %shr.i16 to i64
  %arrayidx.i18 = getelementptr inbounds [2048 x i8], ptr @_ZN6icu_7512CollationFCD9lcccIndexE, i64 0, i64 %idxprom.i17
  %10 = load i8, ptr %arrayidx.i18, align 1
  %cmp1.not.i19 = icmp eq i8 %10, 0
  br i1 %cmp1.not.i19, label %for.end, label %_ZN6icu_7512CollationFCD7hasLcccEi.exit

_ZN6icu_7512CollationFCD7hasLcccEi.exit:          ; preds = %land.lhs.true.i15
  %idxprom2.i21 = zext i8 %10 to i64
  %arrayidx3.i22 = getelementptr inbounds [0 x i32], ptr @_ZN6icu_7512CollationFCD8lcccBitsE, i64 0, i64 %idxprom2.i21
  %11 = load i32, ptr %arrayidx3.i22, align 4
  %and.i23 = and i32 %conv13, 31
  %shl.i24 = shl nuw i32 1, %and.i23
  %and4.i25 = and i32 %11, %shl.i24
  %cmp5.i26.not = icmp eq i32 %and4.i25, 0
  br i1 %cmp5.i26.not, label %for.end, label %if.then16

if.then16:                                        ; preds = %_ZN6icu_7512CollationFCD7hasLcccEi.exit, %if.then6
  %incdec.ptr18 = getelementptr inbounds i8, ptr %.pre40, i64 -2
  store ptr %incdec.ptr18, ptr %pos, align 8
  %call19 = tail call noundef signext i8 @_ZN6icu_7525FCDUTF16CollationIterator11nextSegmentER10UErrorCode(ptr noundef nonnull align 8 dereferenceable(521) %this, ptr noundef nonnull align 4 dereferenceable(4) %errorCode), !range !7
  %tobool20.not = icmp eq i8 %call19, 0
  br i1 %tobool20.not, label %if.then21, label %if.end22

if.then21:                                        ; preds = %if.then16
  store i32 -1, ptr %c, align 4
  br label %return

if.end22:                                         ; preds = %if.then16
  %12 = load ptr, ptr %pos, align 8
  br label %for.end.sink.split

land.lhs.true31:                                  ; preds = %_ZN6icu_7525FCDUTF16CollationIterator15switchToForwardEv.exit, %if.else.lr.ph
  %.lcssa47 = phi ptr [ %pos.i.promoted, %_ZN6icu_7525FCDUTF16CollationIterator15switchToForwardEv.exit ], [ %start.i.promoted, %if.else.lr.ph ]
  %.lcssa = phi ptr [ %pos.i.promoted, %_ZN6icu_7525FCDUTF16CollationIterator15switchToForwardEv.exit ], [ %segmentStart.i33.promoted, %if.else.lr.ph ]
  %cmp34.not = icmp eq ptr %pos.i.promoted, %limit33.promoted
  br i1 %cmp34.not, label %if.else7.i, label %for.end.sink.split

if.then.i:                                        ; preds = %if.else.lr.ph
  %cmp3.i = icmp eq ptr %pos.i.promoted, %0
  store ptr %pos.i.promoted, ptr %segmentStart.i33, align 8
  store ptr %pos.i.promoted, ptr %start.i, align 8
  br i1 %cmp3.i, label %_ZN6icu_7525FCDUTF16CollationIterator15switchToForwardEv.exit.thread, label %_ZN6icu_7525FCDUTF16CollationIterator15switchToForwardEv.exit

if.else7.i:                                       ; preds = %land.lhs.true31
  %cmp10.i = icmp eq ptr %.lcssa47, %.lcssa
  br i1 %cmp10.i, label %_ZN6icu_7525FCDUTF16CollationIterator15switchToForwardEv.exit.thread, label %if.else12.i

if.else12.i:                                      ; preds = %if.else7.i
  store ptr %0, ptr %segmentStart.i33, align 8
  store ptr %0, ptr %start.i, align 8
  store ptr %0, ptr %pos.i, align 8
  br label %_ZN6icu_7525FCDUTF16CollationIterator15switchToForwardEv.exit.thread

_ZN6icu_7525FCDUTF16CollationIterator15switchToForwardEv.exit.thread: ; preds = %if.then.i, %if.else7.i, %if.else12.i
  %13 = phi ptr [ %0, %if.else12.i ], [ %pos.i.promoted, %if.else7.i ], [ %pos.i.promoted, %if.then.i ]
  store ptr %1, ptr %limit33, align 8
  store i8 1, ptr %checkDir, align 8
  br label %if.then

_ZN6icu_7525FCDUTF16CollationIterator15switchToForwardEv.exit: ; preds = %if.then.i
  store i8 0, ptr %checkDir, align 8
  br label %land.lhs.true31

for.end.sink.split:                               ; preds = %land.lhs.true31, %if.end22
  %pos.i.promoted.sink = phi ptr [ %12, %if.end22 ], [ %pos.i.promoted, %land.lhs.true31 ]
  %pos.i.sink = phi ptr [ %pos, %if.end22 ], [ %pos.i, %land.lhs.true31 ]
  %incdec.ptr37 = getelementptr inbounds i8, ptr %pos.i.promoted.sink, i64 2
  store ptr %incdec.ptr37, ptr %pos.i.sink, align 8
  %conv25.sink.in = load i16, ptr %pos.i.promoted.sink, align 2
  %conv25.sink = zext i16 %conv25.sink.in to i32
  store i32 %conv25.sink, ptr %c, align 4
  br label %for.end

for.end:                                          ; preds = %for.end.sink.split, %land.lhs.true, %land.lhs.true.i15, %if.end, %land.lhs.true.i, %_ZN6icu_7512CollationFCD7hasTcccEi.exit, %_ZN6icu_7512CollationFCD7hasLcccEi.exit, %lor.lhs.false
  %14 = phi i32 [ %conv5, %land.lhs.true ], [ %conv5, %land.lhs.true.i15 ], [ %conv5, %if.end ], [ %conv5, %land.lhs.true.i ], [ %conv5, %_ZN6icu_7512CollationFCD7hasTcccEi.exit ], [ %conv5, %_ZN6icu_7512CollationFCD7hasLcccEi.exit ], [ %conv5, %lor.lhs.false ], [ %conv25.sink, %for.end.sink.split ]
  %trie = getelementptr inbounds i8, ptr %this, i64 8
  %15 = load ptr, ptr %trie, align 8
  %data32 = getelementptr inbounds i8, ptr %15, i64 16
  %16 = load ptr, ptr %data32, align 8
  %17 = load ptr, ptr %15, align 8
  %shr = lshr i32 %14, 5
  %idxprom = zext nneg i32 %shr to i64
  %arrayidx = getelementptr inbounds i16, ptr %17, i64 %idxprom
  %18 = load i16, ptr %arrayidx, align 2
  %conv43 = zext i16 %18 to i32
  %shl = shl nuw nsw i32 %conv43, 2
  %and = and i32 %14, 31
  %add44 = add nuw nsw i32 %shl, %and
  %idxprom45 = zext nneg i32 %add44 to i64
  %arrayidx46 = getelementptr inbounds i32, ptr %16, i64 %idxprom45
  %19 = load i32, ptr %arrayidx46, align 4
  br label %return

return:                                           ; preds = %for.end, %if.then21, %if.then3
  %retval.0 = phi i32 [ 192, %if.then3 ], [ %19, %for.end ], [ 192, %if.then21 ]
  ret i32 %retval.0
}